Certificate:
    Data:
        Version: 3 (0x2)
        Serial Number:
            f9:43:83:aa:83:f3:b1:23
    Signature Algorithm: sha1WithRSAEncryption
        Issuer: C=NL, ST=QUICKCONFIGS, O=QUICKCONFIGS, OU=QUICKCONFIGS, CN=ROOT
        Validity
            Not Before: Aug 10 13:46:09 2016 GMT
            Not After : Aug 10 13:46:09 2019 GMT
        Subject: C=NL, ST=QUICKCONFIGS, O=QUICKCONFIGS, OU=QUICKCONFIGS, CN=ROOT
        Subject Public Key Info:
            Public Key Algorithm: rsaEncryption
                Public-Key: (2048 bit)
                Modulus:
                    00:d6:17:c2:c5:0f:8d:65:70:08:7e:e2:ca:9f:9d:
                    45:9f:87:9b:de:30:ec:a1:8d:14:65:b7:db:9e:2d:
                    93:16:4d:8d:2b:4a:6e:73:fa:19:c8:90:84:31:c8:
                    67:04:35:40:46:de:15:e2:9f:6e:49:df:ee:da:64:
                    31:c4:1e:8a:ee:4b:ed:d6:56:a7:53:f3:00:66:e9:
                    b7:20:57:4e:53:02:3d:08:ca:3e:d5:b4:e0:2c:3f:
                    5e:70:17:65:5d:5f:1f:86:1f:00:4a:d9:0e:69:d9:
                    28:6a:11:35:d3:ca:59:34:69:b6:f6:b1:03:35:33:
                    a9:28:02:01:e4:88:4e:f3:2e:32:1e:dd:54:e5:5b:
                    30:26:9a:16:a7:a9:92:63:6d:2b:77:82:ea:78:f6:
                    9d:59:ba:b8:b4:64:8b:ca:c8:15:f6:2c:4b:88:20:
                    dd:6c:61:ae:f9:7d:98:2d:44:f2:80:f0:de:c4:18:
                    6c:f5:17:2e:7a:95:1b:44:e7:d7:2c:ce:85:c4:0f:
                    f7:58:22:57:7f:b4:cf:23:e1:db:7d:0d:60:6c:e5:
                    ec:2b:a8:0a:04:5d:67:33:37:b8:dc:89:2c:21:7f:
                    b4:43:46:96:08:c0:b8:b9:13:e0:d2:ae:4e:ba:0b:
                    fc:00:29:74:c5:1d:35:a1:99:9b:ff:14:31:67:9a:
                    9d:a9
                Exponent: 65537 (0x10001)
        X509v3 extensions:
            X509v3 Subject Key Identifier: 
                E1:69:64:A1:ED:D9:B0:F5:F9:E2:72:6D:EE:82:B4:15:92:01:53:26
            X509v3 Authority Key Identifier: 
                keyid:E1:69:64:A1:ED:D9:B0:F5:F9:E2:72:6D:EE:82:B4:15:92:01:53:26

            X509v3 Basic Constraints: 
                CA:TRUE
    Signature Algorithm: sha1WithRSAEncryption
         71:a6:e3:1b:8e:b8:a3:f2:d4:9a:ca:c8:6e:53:ac:5d:41:21:
         b8:dd:33:ca:f4:66:97:7c:fd:f0:b5:32:b2:5f:b8:71:bc:c9:
         d7:85:45:5a:f5:2e:6f:15:00:1c:48:ba:97:f2:8f:97:c2:fb:
         9e:4f:2e:ee:69:f8:0d:14:ff:3d:d3:94:3d:53:e4:92:23:5b:
         63:76:25:1c:73:58:e2:71:37:a2:6d:c4:44:32:4d:99:3e:3b:
         57:c0:d6:e3:c3:f6:88:b7:8f:dd:b5:32:7c:6a:b5:57:63:05:
         a1:bd:f0:58:e7:7a:62:03:b3:17:09:3d:0b:cf:d5:e7:42:b8:
         16:bc:57:ef:ec:00:f2:c9:71:bd:4f:b8:b8:59:fc:73:a0:f1:
         2e:ba:ed:2a:2e:24:14:f9:d8:59:94:e7:07:10:81:d9:0d:89:
         57:b9:3c:e0:03:2f:91:33:13:d3:22:67:ad:b7:e8:7e:fa:d2:
         b6:10:84:34:a1:cd:a8:f9:38:1b:ea:c9:f8:90:d5:e7:da:d4:
         e8:0e:77:f4:3f:94:62:d0:19:a1:48:21:59:33:74:86:75:7e:
         2e:93:a9:83:be:b7:27:b4:5b:a8:e5:4f:97:6f:f1:6d:f7:b3:
         74:13:7c:ba:90:3d:b8:bf:b1:37:20:5f:66:cc:68:90:4f:89:
         54:d7:e0:81
-----BEGIN CERTIFICATE-----
MIIDlTCCAn2gAwIBAgIJAPlDg6qD87EjMA0GCSqGSIb3DQEBBQUAMGExCzAJBgNV
BAYTAk5MMRUwEwYDVQQIDAxRVUlDS0NPTkZJR1MxFTATBgNVBAoMDFFVSUNLQ09O
RklHUzEVMBMGA1UECwwMUVVJQ0tDT05GSUdTMQ0wCwYDVQQDDARST09UMB4XDTE2
MDgxMDEzNDYwOVoXDTE5MDgxMDEzNDYwOVowYTELMAkGA1UEBhMCTkwxFTATBgNV
BAgMDFFVSUNLQ09ORklHUzEVMBMGA1UECgwMUVVJQ0tDT05GSUdTMRUwEwYDVQQL
DAxRVUlDS0NPTkZJR1MxDTALBgNVBAMMBFJPT1QwggEiMA0GCSqGSIb3DQEBAQUA
A4IBDwAwggEKAoIBAQDWF8LFD41lcAh+4sqfnUWfh5veMOyhjRRlt9ueLZMWTY0r
Sm5z+hnIkIQxyGcENUBG3hXin25J3+7aZDHEHoruS+3WVqdT8wBm6bcgV05TAj0I
yj7VtOAsP15wF2VdXx+GHwBK2Q5p2ShqETXTylk0abb2sQM1M6koAgHkiE7zLjIe
3VTlWzAmmhanqZJjbSt3gup49p1Zuri0ZIvKyBX2LEuIIN1sYa75fZgtRPKA8N7E
GGz1Fy56lRtE59cszoXED/dYIld/tM8j4dt9DWBs5ewrqAoEXWczN7jciSwhf7RD
RpYIwLi5E+DSrk66C/wAKXTFHTWhmZv/FDFnmp2pAgMBAAGjUDBOMB0GA1UdDgQW
BBThaWSh7dmw9fnicm3ugrQVkgFTJjAfBgNVHSMEGDAWgBThaWSh7dmw9fnicm3u
grQVkgFTJjAMBgNVHRMEBTADAQH/MA0GCSqGSIb3DQEBBQUAA4IBAQBxpuMbjrij
8tSayshuU6xdQSG43TPK9GaXfP3wtTKyX7hxvMnXhUVa9S5vFQAcSLqX8o+Xwvue
Ty7uafgNFP8905Q9U+SSI1tjdiUcc1jicTeibcREMk2ZPjtXwNbjw/aIt4/dtTJ8
arVXYwWhvfBY53piA7MXCT0Lz9XnQrgWvFfv7ADyyXG9T7i4WfxzoPEuuu0qLiQU
+dhZlOcHEIHZDYlXuTzgAy+RMxPTImett+h++tK2EIQ0oc2o+Tgb6sn4kNXn2tTo
Dnf0P5Ri0BmhSCFZM3SGdX4uk6mDvrcntFuo5U+Xb/Ft97N0E3y6kD24v7E3IF9m
zGiQT4lU1+CB
-----END CERTIFICATE-----
