Certificate:
    Data:
        Version: 3 (0x2)
        Serial Number:
            f9:43:83:aa:83:f3:b1:25
    Signature Algorithm: sha1WithRSAEncryption
        Issuer: C=NL, ST=QUICKCONFIGS, O=QUICKCONFIGS, OU=QUICKCONFIGS, CN=ROOT
        Validity
            Not Before: Aug 10 13:49:13 2016 GMT
            Not After : Aug 10 13:49:13 2017 GMT
        Subject: C=NL, ST=QUICKCONFIGS, L=QUICKCONFIGS, O=QUICKCONFIGS, OU=QUICKCONFIGS, CN=CLIENT
        Subject Public Key Info:
            Public Key Algorithm: rsaEncryption
                Public-Key: (2048 bit)
                Modulus:
                    00:ca:fa:3b:ce:bb:51:30:65:12:89:b0:aa:df:9b:
                    f6:d5:23:68:fa:02:c1:a6:7c:ad:ad:dc:a6:4d:5b:
                    68:d2:b8:1e:af:fa:35:5e:76:cb:f6:b2:91:11:8e:
                    11:98:9f:91:e7:a8:25:b3:f6:5d:5f:07:37:06:73:
                    ea:50:9d:85:94:4e:cf:5b:34:90:f7:21:67:ea:e3:
                    c2:3a:13:1d:c3:91:6a:1e:48:59:ca:99:ca:09:7e:
                    5b:de:a2:b3:b8:4b:f3:41:c1:45:c8:04:d6:26:7a:
                    22:ad:59:ca:ec:73:4b:37:31:36:10:7a:c0:62:23:
                    00:24:23:a2:d0:d4:e5:bc:b9:eb:54:a6:5a:31:7f:
                    a4:ec:af:1c:2f:12:5b:6a:d7:7e:77:95:59:f0:d7:
                    b9:8a:64:f9:3b:62:91:74:1f:f2:44:0c:fb:8d:fc:
                    1c:eb:4b:86:13:9a:3f:89:ba:20:c6:54:8a:e9:86:
                    4f:86:a8:21:ee:1d:23:42:fa:da:d6:45:74:82:ca:
                    41:b1:6e:58:76:77:4a:51:ef:f5:c4:8a:69:35:f0:
                    9d:6d:e2:02:1d:44:e7:84:d2:b0:2a:08:e5:4c:45:
                    d2:4e:a8:d7:ba:74:4c:d5:b2:6e:76:cc:09:95:b0:
                    c3:a2:9d:a2:0a:ea:9b:9e:7f:f2:7b:97:f2:c2:63:
                    74:d9
                Exponent: 65537 (0x10001)
        X509v3 extensions:
            X509v3 Basic Constraints: 
                CA:FALSE
            Netscape Comment: 
                OpenSSL Generated Certificate
            X509v3 Subject Key Identifier: 
                EB:D3:07:FA:18:26:64:14:18:3A:D7:36:72:DC:49:20:8D:E1:B2:A3
            X509v3 Authority Key Identifier: 
                keyid:E1:69:64:A1:ED:D9:B0:F5:F9:E2:72:6D:EE:82:B4:15:92:01:53:26

    Signature Algorithm: sha1WithRSAEncryption
         a1:93:3c:23:6c:e5:c0:df:bc:33:2a:4a:78:98:28:22:af:39:
         29:7e:24:0f:78:a8:ba:d1:c0:77:27:a2:de:9e:ab:4c:f6:99:
         36:91:f5:c0:9c:7a:20:e4:02:c6:ac:6f:29:14:91:fc:2c:4e:
         26:c7:cd:29:4c:3c:14:b5:ed:84:17:b5:96:21:85:31:b9:13:
         9d:60:34:aa:c0:ab:a3:43:4a:f1:c4:60:bd:de:1e:67:b5:5d:
         1c:c8:04:17:09:04:68:17:57:24:e5:8c:72:03:a4:b0:5a:f2:
         68:97:1b:cd:43:2d:19:6d:aa:86:cd:32:d1:cf:85:fc:95:d1:
         e7:7d:9d:d3:be:f3:8f:d0:54:6a:05:84:52:f1:f7:83:e0:5d:
         c1:62:2e:37:4b:30:09:db:a8:d4:e0:25:8d:bc:bd:4f:23:f1:
         6d:ed:c4:ca:f7:a6:33:44:0c:5f:04:67:e1:12:70:b5:5b:40:
         c4:c8:e0:21:f4:f6:4a:09:5f:f2:cd:dc:af:ee:91:ac:85:f3:
         c1:bc:ed:a7:89:39:bb:2f:5e:53:a9:41:ac:7e:64:c1:37:4c:
         38:e9:c6:b7:08:3b:42:89:df:dc:a7:e8:f1:02:63:e3:02:b3:
         0d:20:23:97:a5:84:41:90:ad:86:29:76:94:51:93:db:65:f2:
         bf:12:f6:31
-----BEGIN CERTIFICATE-----
MIID2TCCAsGgAwIBAgIJAPlDg6qD87ElMA0GCSqGSIb3DQEBBQUAMGExCzAJBgNV
BAYTAk5MMRUwEwYDVQQIDAxRVUlDS0NPTkZJR1MxFTATBgNVBAoMDFFVSUNLQ09O
RklHUzEVMBMGA1UECwwMUVVJQ0tDT05GSUdTMQ0wCwYDVQQDDARST09UMB4XDTE2
MDgxMDEzNDkxM1oXDTE3MDgxMDEzNDkxM1owejELMAkGA1UEBhMCTkwxFTATBgNV
BAgMDFFVSUNLQ09ORklHUzEVMBMGA1UEBwwMUVVJQ0tDT05GSUdTMRUwEwYDVQQK
DAxRVUlDS0NPTkZJR1MxFTATBgNVBAsMDFFVSUNLQ09ORklHUzEPMA0GA1UEAwwG
Q0xJRU5UMIIBIjANBgkqhkiG9w0BAQEFAAOCAQ8AMIIBCgKCAQEAyvo7zrtRMGUS
ibCq35v21SNo+gLBpnytrdymTVto0rger/o1XnbL9rKREY4RmJ+R56gls/ZdXwc3
BnPqUJ2FlE7PWzSQ9yFn6uPCOhMdw5FqHkhZypnKCX5b3qKzuEvzQcFFyATWJnoi
rVnK7HNLNzE2EHrAYiMAJCOi0NTlvLnrVKZaMX+k7K8cLxJbatd+d5VZ8Ne5imT5
O2KRdB/yRAz7jfwc60uGE5o/ibogxlSK6YZPhqgh7h0jQvra1kV0gspBsW5YdndK
Ue/1xIppNfCdbeICHUTnhNKwKgjlTEXSTqjXunRM1bJudswJlbDDop2iCuqbnn/y
e5fywmN02QIDAQABo3sweTAJBgNVHRMEAjAAMCwGCWCGSAGG+EIBDQQfFh1PcGVu
U1NMIEdlbmVyYXRlZCBDZXJ0aWZpY2F0ZTAdBgNVHQ4EFgQU69MH+hgmZBQYOtc2
ctxJII3hsqMwHwYDVR0jBBgwFoAU4Wlkoe3ZsPX54nJt7oK0FZIBUyYwDQYJKoZI
hvcNAQEFBQADggEBAKGTPCNs5cDfvDMqSniYKCKvOSl+JA94qLrRwHcnot6eq0z2
mTaR9cCceiDkAsasbykUkfwsTibHzSlMPBS17YQXtZYhhTG5E51gNKrAq6NDSvHE
YL3eHme1XRzIBBcJBGgXVyTljHIDpLBa8miXG81DLRltqobNMtHPhfyV0ed9ndO+
84/QVGoFhFLx94PgXcFiLjdLMAnbqNTgJY28vU8j8W3txMr3pjNEDF8EZ+EScLVb
QMTI4CH09koJX/LN3K/ukayF88G87aeJObsvXlOpQax+ZME3TDjpxrcIO0KJ39yn
6PECY+MCsw0gI5elhEGQrYYpdpRRk9tl8r8S9jE=
-----END CERTIFICATE-----
